(dp0
(S'Arnav'
p1
S'Jenny'
p2
tp3
I0
s(S'Ahmed'
p4
S'Selena'
p5
tp6
I1
s(g1
S'James'
p7
tp8
I1
s(S'Juan'
p9
S'Nick'
p10
tp11
I2
s(S'Chris'
p12
g5
tp13
I2
s(S'Allen'
p14
S'Lee'
p15
tp16
I1
s(S'Eric'
p17
S'Eugene'
p18
tp19
I1
s(g4
g9
tp20
I1
s(S'Brendan'
p21
g9
tp22
I2
s(S'Helen'
p23
S'John'
p24
tp25
I2
s(S'Navata'
p26
S'Reid'
p27
tp28
I0
s(g14
g21
tp29
I1
s(g14
g23
tp30
I0
s(g17
g10
tp31
I1
s(g14
g27
tp32
I3
s(g21
g24
tp33
I0
s(S'Brayden'
p34
g21
tp35
I2
s(g4
g7
tp36
I2
s(g1
g10
tp37
I3
s(g2
g10
tp38
I1
s(g34
g10
tp39
I1
s(g23
S'Mike'
p40
tp41
I1
s(g27
g5
tp42
I2
s(g21
g17
tp43
I2
s(g1
g12
tp44
I2
s(g4
g15
tp45
I2
s(g17
g2
tp46
I2
s(g2
g9
tp47
I1
s(g14
g10
tp48
I1
s(g7
g40
tp49
I1
s(g12
g27
tp50
I0
s(g34
g27
tp51
I0
s(g4
g23
tp52
I1
s(g34
g23
tp53
I1
s(g4
g14
tp54
I1
s(g2
g24
tp55
I2
s(g4
g26
tp56
I1
s(g21
g15
tp57
I1
s(g34
g18
tp58
I2
s(g1
g26
tp59
I1
s(g4
g17
tp60
I4
s(g34
g5
tp61
I1
s(g23
g9
tp62
I2
s(g34
g15
tp63
I1
s(g15
g10
tp64
I2
s(g18
g26
tp65
I1
s(g24
g27
tp66
I3
s(g23
g26
tp67
I1
s(g24
g40
tp68
I1
s(g17
g24
tp69
I2
s(g12
g7
tp70
I1
s(g34
g17
tp71
I0
s(g18
g15
tp72
I2
s(g7
g5
tp73
I1
s(g21
g7
tp74
I1
s(g24
g10
tp75
I1
s(g21
g18
tp76
I1
s(g21
g2
tp77
I1
s(g4
g10
tp78
I1
s(g23
g2
tp79
I1
s(g23
g27
tp80
I1
s(g21
g26
tp81
I1
s(g12
g2
tp82
I2
s(g1
g24
tp83
I0
s(g26
g10
tp84
I3
s(g14
g9
tp85
I1
s(g1
g15
tp86
I1
s(g7
g26
tp87
I0
s(g1
g17
tp88
I2
s(g34
g26
tp89
I2
s(g17
g9
tp90
I1
s(g34
g24
tp91
I0
s(g23
g7
tp92
I2
s(g21
g27
tp93
I1
s(g18
g40
tp94
I3
s(g4
g40
tp95
I1
s(g2
g5
tp96
I1
s(g12
g17
tp97
I1
s(g1
g5
tp98
I2
s(g23
g5
tp99
I2
s(g40
g5
tp100
I0
s(g14
g12
tp101
I3
s(g9
g26
tp102
I3
s(g18
g24
tp103
I2
s(g7
g10
tp104
I1
s(g17
g7
tp105
I2
s(g14
g40
tp106
I1
s(g4
g12
tp107
I1
s(g17
g27
tp108
I2
s(g17
g5
tp109
I1
s(g1
g21
tp110
I1
s(g14
g17
tp111
I1
s(g7
g9
tp112
I1
s(g17
g23
tp113
I1
s(g24
g15
tp114
I1
s(g9
g40
tp115
I2
s(g15
g5
tp116
I1
s(g24
g5
tp117
I3
s(g14
g7
tp118
I4
s(g40
g27
tp119
I1
s(g7
g24
tp120
I2
s(g34
g7
tp121
I1
s(g2
g27
tp122
I3
s(g4
g21
tp123
I1
s(g34
g2
tp124
I2
s(g24
g26
tp125
I1
s(g18
g27
tp126
I0
s(g1
g18
tp127
I1
s(g14
g5
tp128
I1
s(g1
g23
tp129
I2
s(g1
g27
tp130
I1
s(g4
g1
tp131
I1
s(g14
g34
tp132
I1
s(g23
g10
tp133
I1
s(g21
g40
tp134
I2
s(g14
g2
tp135
I1
s(g12
g24
tp136
I2
s(g12
g26
tp137
I1
s(g18
g10
tp138
I1
s(g15
g26
tp139
I0
s(g15
g27
tp140
I2
s(g34
g12
tp141
I1
s(g7
g15
tp142
I1
s(g12
g9
tp143
I1
s(g12
g15
tp144
I1
s(g26
g5
tp145
I1
s(g14
g24
tp146
I1
s(g18
g23
tp147
I1
s(g14
g26
tp148
I4
s(g10
g27
tp149
I2
s(g34
g40
tp150
I1
s(g2
g40
tp151
I1
s(g9
g5
tp152
I2
s(g34
g9
tp153
I2
s(g9
g15
tp154
I1
s(g10
g5
tp155
I1
s(g4
g18
tp156
I2
s(g21
g5
tp157
I2
s(g2
g26
tp158
I2
s(g12
g40
tp159
I1
s(g7
g2
tp160
I1
s(g21
g12
tp161
I1
s(g17
g26
tp162
I1
s(g14
g1
tp163
I1
s(g1
g9
tp164
I3
s(g9
g27
tp165
I1
s(g1
g40
tp166
I1
s(g24
g9
tp167
I0
s(g1
g34
tp168
I1
s(g15
g40
tp169
I2
s(g12
g18
tp170
I1
s(g4
g27
tp171
I1
s(g18
g7
tp172
I2
s(g18
g2
tp173
I2
s(g21
g23
tp174
I2
s(g40
g26
tp175
I2
s(g7
g27
tp176
I1
s(g17
g40
tp177
I1
s(g18
g5
tp178
I1
s(g18
g9
tp179
I2
s(g2
g15
tp180
I2
s(g23
g15
tp181
I2
s(g14
g18
tp182
I0
s(g4
g34
tp183
I2
s(g12
g10
tp184
I1
s(g21
g10
tp185
I1
s(g12
g23
tp186
I2
s(g4
g2
tp187
I1
s(g4
g24
tp188
I2
s(g17
g15
tp189
I1
s(g40
g10
tp190
I1
s.