(dp0
(S'Arnav'
p1
S'Jenny'
p2
tp3
I0
s(g1
S'James'
p4
tp5
I0
s(S'Juan'
p6
S'Nick'
p7
tp8
I0
s(S'Chris'
p9
S'Selena'
p10
tp11
I0
s(S'Allen'
p12
S'Lee'
p13
tp14
I0
s(S'Eric'
p15
S'Eugene'
p16
tp17
I0
s(S'Ahmed'
p18
g6
tp19
I0
s(S'Brendan'
p20
g6
tp21
I1
s(S'Helen'
p22
S'John'
p23
tp24
I0
s(S'Navata'
p25
S'Reid'
p26
tp27
I0
s(g12
g20
tp28
I1
s(g12
g22
tp29
I0
s(g15
g7
tp30
I0
s(g12
g26
tp31
I0
s(g20
g23
tp32
I0
s(S'Brayden'
p33
g20
tp34
I0
s(g18
g4
tp35
I1
s(g2
g7
tp36
I1
s(g33
g7
tp37
I0
s(g22
S'Mike'
p38
tp39
I1
s(g26
g10
tp40
I1
s(g20
g15
tp41
I0
s(g1
g9
tp42
I0
s(g18
g13
tp43
I0
s(g15
g2
tp44
I1
s(g2
g6
tp45
I1
s(g12
g7
tp46
I0
s(g4
g38
tp47
I0
s(g9
g26
tp48
I0
s(g33
g26
tp49
I0
s(g18
g22
tp50
I0
s(g33
g22
tp51
I1
s(g18
g12
tp52
I0
s(g2
g23
tp53
I0
s(g18
g25
tp54
I0
s(g20
g13
tp55
I0
s(g33
g16
tp56
I0
s(g1
g25
tp57
I0
s(g18
g15
tp58
I0
s(g33
g10
tp59
I0
s(g22
g6
tp60
I0
s(g33
g13
tp61
I0
s(g13
g7
tp62
I0
s(g16
g25
tp63
I1
s(g23
g26
tp64
I1
s(g22
g25
tp65
I1
s(g23
g38
tp66
I0
s(g15
g23
tp67
I1
s(g9
g4
tp68
I0
s(g33
g15
tp69
I0
s(g1
g20
tp70
I0
s(g16
g13
tp71
I1
s(g4
g10
tp72
I0
s(g20
g4
tp73
I0
s(g23
g7
tp74
I1
s(g20
g16
tp75
I1
s(g20
g2
tp76
I0
s(g18
g7
tp77
I0
s(g22
g2
tp78
I0
s(g22
g26
tp79
I0
s(g16
g4
tp80
I1
s(g9
g2
tp81
I0
s(g1
g23
tp82
I0
s(g25
g7
tp83
I1
s(g12
g6
tp84
I0
s(g1
g13
tp85
I0
s(g9
g6
tp86
I0
s(g4
g25
tp87
I0
s(g1
g15
tp88
I1
s(g33
g25
tp89
I1
s(g15
g6
tp90
I0
s(g33
g23
tp91
I0
s(g22
g4
tp92
I0
s(g20
g26
tp93
I0
s(g16
g38
tp94
I0
s(g18
g38
tp95
I1
s(g2
g10
tp96
I0
s(g9
g15
tp97
I1
s(g18
g20
tp98
I0
s(g22
g10
tp99
I0
s(g12
g9
tp100
I2
s(g6
g25
tp101
I0
s(g16
g23
tp102
I0
s(g4
g7
tp103
I0
s(g23
g25
tp104
I0
s(g12
g38
tp105
I0
s(g18
g9
tp106
I0
s(g15
g26
tp107
I0
s(g15
g10
tp108
I0
s(g2
g13
tp109
I0
s(g18
g10
tp110
I0
s(g33
g6
tp111
I0
s(g4
g6
tp112
I0
s(g15
g22
tp113
I0
s(g23
g13
tp114
I1
s(g6
g38
tp115
I0
s(g13
g10
tp116
I1
s(g23
g10
tp117
I0
s(g12
g4
tp118
I1
s(g38
g26
tp119
I0
s(g4
g23
tp120
I0
s(g33
g4
tp121
I0
s(g7
g10
tp122
I1
s(g1
g10
tp123
I0
s(g33
g2
tp124
I1
s(g15
g4
tp125
I0
s(g16
g26
tp126
I0
s(g1
g16
tp127
I0
s(g16
g6
tp128
I0
s(g1
g22
tp129
I1
s(g1
g26
tp130
I0
s(g18
g1
tp131
I1
s(g12
g33
tp132
I0
s(g22
g7
tp133
I0
s(g20
g38
tp134
I0
s(g12
g2
tp135
I0
s(g9
g23
tp136
I0
s(g9
g25
tp137
I0
s(g16
g7
tp138
I0
s(g13
g25
tp139
I0
s(g13
g26
tp140
I0
s(g33
g9
tp141
I0
s(g4
g13
tp142
I0
s(g1
g7
tp143
I0
s(g9
g13
tp144
I0
s(g25
g10
tp145
I1
s(g12
g23
tp146
I0
s(g16
g22
tp147
I0
s(g12
g25
tp148
I0
s(g7
g26
tp149
I1
s(g33
g38
tp150
I0
s(g2
g38
tp151
I1
s(g6
g10
tp152
I1
s(g12
g15
tp153
I0
s(g6
g13
tp154
I0
s(g2
g26
tp155
I0
s(g18
g16
tp156
I1
s(g38
g7
tp157
I1
s(g20
g10
tp158
I0
s(g2
g25
tp159
I0
s(g9
g38
tp160
I0
s(g4
g2
tp161
I0
s(g20
g9
tp162
I1
s(g15
g25
tp163
I0
s(g38
g10
tp164
I0
s(g1
g6
tp165
I1
s(g6
g26
tp166
I0
s(g1
g38
tp167
I0
s(g23
g6
tp168
I0
s(g13
g38
tp169
I1
s(g9
g16
tp170
I0
s(g18
g26
tp171
I0
s(g20
g25
tp172
I0
s(g16
g2
tp173
I0
s(g20
g22
tp174
I0
s(g38
g25
tp175
I0
s(g4
g26
tp176
I1
s(g15
g38
tp177
I0
s(g16
g10
tp178
I0
s(g12
g10
tp179
I0
s(g12
g1
tp180
I0
s(g22
g13
tp181
I0
s(g12
g16
tp182
I0
s(g15
g13
tp183
I0
s(g9
g7
tp184
I0
s(g20
g7
tp185
I0
s(g9
g22
tp186
I0
s(g18
g2
tp187
I0
s(g18
g23
tp188
I0
s(g18
g33
tp189
I1
s(g1
g33
tp190
I0
s.